Certificate:
    Data:
        Version: 3 (0x2)
        Serial Number: 39446 (0x9a16)
        Signature Algorithm: sha1WithRSAEncryption
        Issuer: C=FR, O=CNRS, CN=CNRS2-Standard
        Validity
            Not Before: Apr 28 13:40:13 2015 GMT
            Not After : Apr 27 13:40:13 2017 GMT
        Subject: C=FR, O=CNRS, OU=FRE3693, CN=brainscales.unic.cnrs-gif.fr/emailAddress=webmestre-unic@unic.cnrs-gif.fr
        Subject Public Key Info:
            Public Key Algorithm: rsaEncryption
            RSA Public Key: (1024 bit)
                Modulus (1024 bit):
                    00:cb:b8:e0:be:c0:2c:b7:af:bb:d5:e3:c1:27:62:
                    da:dc:0a:9e:ee:f9:c2:23:00:9c:86:eb:cb:16:57:
                    54:40:54:96:3b:93:2a:b6:73:b3:10:d8:a0:da:1e:
                    ec:fe:e9:3e:75:b9:c0:c1:db:45:8c:32:3a:87:db:
                    bb:75:a4:5d:35:bd:66:40:0e:e1:11:e8:7c:d8:cd:
                    1b:e6:21:86:3e:a8:79:c4:8d:19:44:6c:9c:e5:9a:
                    e4:b1:5b:20:83:d0:40:e7:c5:1d:90:08:da:06:b5:
                    0b:08:85:0a:35:45:a9:74:7b:5a:b8:33:fa:ac:df:
                    b2:88:90:a6:37:e0:ae:8c:29
                Exponent: 65537 (0x10001)
        X509v3 extensions:
            X509v3 Basic Constraints: critical
                CA:FALSE
            Netscape Cert Type: 
                SSL Client, SSL Server
            X509v3 Key Usage: critical
                Digital Signature, Non Repudiation, Key Encipherment
            X509v3 Extended Key Usage: 
                TLS Web Server Authentication, TLS Web Client Authentication
            Netscape Comment: 
                Certificat serveur CNRS2-Standard
            X509v3 Subject Key Identifier: 
                2E:FA:6C:42:B9:F5:73:4D:C3:F6:9F:73:DA:7C:30:F8:B4:C6:4C:54
            X509v3 Authority Key Identifier: 
                keyid:11:E3:D9:D1:52:47:1B:59:B1:3C:1B:78:66:6B:F4:A1:88:ED:0A:5B
                DirName:/C=FR/O=CNRS/CN=CNRS2
                serial:03

            X509v3 Subject Alternative Name: 
                email:webmestre-unic@unic.cnrs-gif.fr
            X509v3 CRL Distribution Points: 
                URI:http://crls.services.cnrs.fr/CNRS2-Standard/getder.crl

    Signature Algorithm: sha1WithRSAEncryption
        40:d9:8d:56:ea:48:aa:02:10:36:40:e3:8c:1c:2c:dd:be:ce:
        d6:4a:a0:80:bf:0d:d3:96:80:41:f6:24:f3:18:f9:a6:cd:b6:
        92:eb:d1:a1:8d:23:20:06:3b:69:a6:ff:94:5f:0c:0d:fb:dd:
        2e:21:a9:29:bd:dd:c6:12:60:8b:03:63:32:4d:ce:2c:a8:3e:
        ad:7f:fb:5e:db:b2:95:59:23:3d:3f:f9:88:3e:7b:05:9d:4f:
        ee:cd:cf:b2:ff:f4:e0:d9:7a:03:2d:48:b6:b0:23:89:9b:92:
        33:d1:0f:da:b3:14:c5:33:dc:b8:da:17:d8:3b:2b:48:21:6d:
        ae:f9:86:6c:81:99:fb:29:97:10:37:66:f6:e7:07:f7:d4:f2:
        48:8b:41:a3:59:5d:a2:4d:08:c1:bb:d8:6d:e8:4d:97:ab:c7:
        ba:e0:da:ba:85:9c:93:54:4e:d2:a1:39:32:2c:9d:c5:be:80:
        d0:69:9e:ea:b8:f7:75:18:be:29:e6:ae:b2:30:57:86:2e:fe:
        bf:07:b5:3e:3f:36:32:f7:54:23:90:29:b6:c1:ea:f6:d8:15:
        2d:ed:84:dc:b9:c1:17:6b:d8:65:52:63:c8:3c:0c:18:0e:09:
        30:24:7b:2a:a4:38:67:dc:29:4c:22:7a:d8:bb:ba:8a:60:0f:
        3e:d4:f6:53
-----BEGIN CERTIFICATE-----
MIIEJjCCAw6gAwIBAgIDAJoWMA0GCSqGSIb3DQEBBQUAMDUxCzAJBgNVBAYTAkZS
MQ0wCwYDVQQKEwRDTlJTMRcwFQYDVQQDEw5DTlJTMi1TdGFuZGFyZDAeFw0xNTA0
MjgxMzQwMTNaFw0xNzA0MjcxMzQwMTNaMIGFMQswCQYDVQQGEwJGUjENMAsGA1UE
ChMEQ05SUzEQMA4GA1UECxMHRlJFMzY5MzElMCMGA1UEAxMcYnJhaW5zY2FsZXMu
dW5pYy5jbnJzLWdpZi5mcjEuMCwGCSqGSIb3DQEJARYfd2VibWVzdHJlLXVuaWNA
dW5pYy5jbnJzLWdpZi5mcjCBnzANBgkqhkiG9w0BAQEFAAOBjQAwgYkCgYEAy7jg
vsAst6+71ePBJ2La3Aqe7vnCIwCchuvLFldUQFSWO5MqtnOzENig2h7s/uk+dbnA
wdtFjDI6h9u7daRdNb1mQA7hEeh82M0b5iGGPqh5xI0ZRGyc5ZrksVsgg9BA58Ud
kAjaBrULCIUKNUWpdHtauDP6rN+yiJCmN+CujCkCAwEAAaOCAXAwggFsMAwGA1Ud
EwEB/wQCMAAwEQYJYIZIAYb4QgEBBAQDAgbAMA4GA1UdDwEB/wQEAwIF4DAdBgNV
HSUEFjAUBggrBgEFBQcDAQYIKwYBBQUHAwIwMAYJYIZIAYb4QgENBCMWIUNlcnRp
ZmljYXQgc2VydmV1ciBDTlJTMi1TdGFuZGFyZDAdBgNVHQ4EFgQULvpsQrn1c03D
9p9z2nww+LTGTFQwVAYDVR0jBE0wS4AUEePZ0VJHG1mxPBt4Zmv0oYjtCluhMKQu
MCwxCzAJBgNVBAYTAkZSMQ0wCwYDVQQKEwRDTlJTMQ4wDAYDVQQDEwVDTlJTMoIB
AzAqBgNVHREEIzAhgR93ZWJtZXN0cmUtdW5pY0B1bmljLmNucnMtZ2lmLmZyMEcG
A1UdHwRAMD4wPKA6oDiGNmh0dHA6Ly9jcmxzLnNlcnZpY2VzLmNucnMuZnIvQ05S
UzItU3RhbmRhcmQvZ2V0ZGVyLmNybDANBgkqhkiG9w0BAQUFAAOCAQEAQNmNVupI
qgIQNkDjjBws3b7O1kqggL8N05aAQfYk8xj5ps22kuvRoY0jIAY7aab/lF8MDfvd
LiGpKb3dxhJgiwNjMk3OLKg+rX/7XtuylVkjPT/5iD57BZ1P7s3Psv/04Nl6Ay1I
trAjiZuSM9EP2rMUxTPcuNoX2DsrSCFtrvmGbIGZ+ymXEDdm9ucH99TySItBo1ld
ok0IwbvYbehNl6vHuuDauoWck1RO0qE5Miydxb6A0Gme6rj3dRi+KeausjBXhi7+
vwe1Pj82MvdUI5AptsHq9tgVLe2E3LnBF2vYZVJjyDwMGA4JMCR7KqQ4Z9wpTCJ6
2Lu6imAPPtT2Uw==
-----END CERTIFICATE-----
